target datalayout = "e-m:e-p270:32:32-p271:32:32-p272:64:64-i64:64-i128:128-f80:128-n8:16:32:64-S128"
target triple = "x86_64-pc-linux-gnu"

%"class.cv::Point_.2" = type { float, float }

; Function Attrs: mustprogress nounwind uwtable
define internal noundef i32 @_ZN2cvL9Sklansky_IfdEEiPPNS_6Point_IT_EEiiPiii(ptr noundef %0, i32 noundef %1, i32 noundef %2, ptr noundef %3, i32 noundef %4, i32 noundef %5) #8 {
  %7 = alloca i32, align 4
  %8 = alloca ptr, align 8
  %9 = alloca i32, align 4
  %10 = alloca i32, align 4
  %11 = alloca ptr, align 8
  %12 = alloca i32, align 4
  %13 = alloca i32, align 4
  %14 = alloca i32, align 4
  %15 = alloca i32, align 4
  %16 = alloca i32, align 4
  %17 = alloca i32, align 4
  %18 = alloca i32, align 4
  %19 = alloca i32, align 4
  %20 = alloca float, align 4
  %21 = alloca float, align 4
  %22 = alloca float, align 4
  %23 = alloca float, align 4
  %24 = alloca float, align 4
  %25 = alloca float, align 4
  %26 = alloca double, align 8
  store ptr %0, ptr %8, align 8, !tbaa !19
  store i32 %1, ptr %9, align 4, !tbaa !12
  store i32 %2, ptr %10, align 4, !tbaa !12
  store ptr %3, ptr %11, align 8, !tbaa !23
  store i32 %4, ptr %12, align 4, !tbaa !12
  store i32 %5, ptr %13, align 4, !tbaa !12
  call void @llvm.lifetime.start.p0(i64 4, ptr %14) #3
  %27 = load i32, ptr %10, align 4, !tbaa !12
  %28 = load i32, ptr %9, align 4, !tbaa !12
  %29 = icmp sgt i32 %27, %28
  %30 = select i1 %29, i32 1, i32 -1
  store i32 %30, ptr %14, align 4, !tbaa !12
  call void @llvm.lifetime.start.p0(i64 4, ptr %15) #3
  %31 = load i32, ptr %9, align 4, !tbaa !12
  store i32 %31, ptr %15, align 4, !tbaa !12
  call void @llvm.lifetime.start.p0(i64 4, ptr %16) #3
  %32 = load i32, ptr %15, align 4, !tbaa !12
  %33 = load i32, ptr %14, align 4, !tbaa !12
  %34 = add nsw i32 %32, %33
  store i32 %34, ptr %16, align 4, !tbaa !12
  call void @llvm.lifetime.start.p0(i64 4, ptr %17) #3
  %35 = load i32, ptr %16, align 4, !tbaa !12
  %36 = load i32, ptr %14, align 4, !tbaa !12
  %37 = add nsw i32 %35, %36
  store i32 %37, ptr %17, align 4, !tbaa !12
  call void @llvm.lifetime.start.p0(i64 4, ptr %18) #3
  store i32 3, ptr %18, align 4, !tbaa !12
  %38 = load i32, ptr %9, align 4, !tbaa !12
  %39 = load i32, ptr %10, align 4, !tbaa !12
  %40 = icmp eq i32 %38, %39
  br i1 %40, label %73, label %41

41:                                               ; preds = %6
  %42 = load ptr, ptr %8, align 8, !tbaa !19
  %43 = load i32, ptr %9, align 4, !tbaa !12
  %44 = sext i32 %43 to i64
  %45 = getelementptr inbounds ptr, ptr %42, i64 %44
  %46 = load ptr, ptr %45, align 8, !tbaa !30
  %47 = getelementptr inbounds nuw %"class.cv::Point_.2", ptr %46, i32 0, i32 0
  %48 = load float, ptr %47, align 4, !tbaa !79
  %49 = load ptr, ptr %8, align 8, !tbaa !19
  %50 = load i32, ptr %10, align 4, !tbaa !12
  %51 = sext i32 %50 to i64
  %52 = getelementptr inbounds ptr, ptr %49, i64 %51
  %53 = load ptr, ptr %52, align 8, !tbaa !30
  %54 = getelementptr inbounds nuw %"class.cv::Point_.2", ptr %53, i32 0, i32 0
  %55 = load float, ptr %54, align 4, !tbaa !79
  %56 = fcmp oeq float %48, %55
  br i1 %56, label %57, label %77

57:                                               ; preds = %41
  %58 = load ptr, ptr %8, align 8, !tbaa !19
  %59 = load i32, ptr %9, align 4, !tbaa !12
  %60 = sext i32 %59 to i64
  %61 = getelementptr inbounds ptr, ptr %58, i64 %60
  %62 = load ptr, ptr %61, align 8, !tbaa !30
  %63 = getelementptr inbounds nuw %"class.cv::Point_.2", ptr %62, i32 0, i32 1
  %64 = load float, ptr %63, align 4, !tbaa !32
  %65 = load ptr, ptr %8, align 8, !tbaa !19
  %66 = load i32, ptr %10, align 4, !tbaa !12
  %67 = sext i32 %66 to i64
  %68 = getelementptr inbounds ptr, ptr %65, i64 %67
  %69 = load ptr, ptr %68, align 8, !tbaa !30
  %70 = getelementptr inbounds nuw %"class.cv::Point_.2", ptr %69, i32 0, i32 1
  %71 = load float, ptr %70, align 4, !tbaa !32
  %72 = fcmp oeq float %64, %71
  br i1 %72, label %73, label %77

73:                                               ; preds = %57, %6
  %74 = load i32, ptr %9, align 4, !tbaa !12
  %75 = load ptr, ptr %11, align 8, !tbaa !23
  %76 = getelementptr inbounds i32, ptr %75, i64 0
  store i32 %74, ptr %76, align 4, !tbaa !12
  store i32 1, ptr %7, align 4
  store i32 1, ptr %19, align 4
  br label %247

77:                                               ; preds = %57, %41
  %78 = load i32, ptr %15, align 4, !tbaa !12
  %79 = load ptr, ptr %11, align 8, !tbaa !23
  %80 = getelementptr inbounds i32, ptr %79, i64 0
  store i32 %78, ptr %80, align 4, !tbaa !12
  %81 = load i32, ptr %16, align 4, !tbaa !12
  %82 = load ptr, ptr %11, align 8, !tbaa !23
  %83 = getelementptr inbounds i32, ptr %82, i64 1
  store i32 %81, ptr %83, align 4, !tbaa !12
  %84 = load i32, ptr %17, align 4, !tbaa !12
  %85 = load ptr, ptr %11, align 8, !tbaa !23
  %86 = getelementptr inbounds i32, ptr %85, i64 2
  store i32 %84, ptr %86, align 4, !tbaa !12
  %87 = load i32, ptr %14, align 4, !tbaa !12
  %88 = load i32, ptr %10, align 4, !tbaa !12
  %89 = add nsw i32 %88, %87
  store i32 %89, ptr %10, align 4, !tbaa !12
  br label %90

90:                                               ; preds = %243, %77
  %91 = load i32, ptr %17, align 4, !tbaa !12
  %92 = load i32, ptr %10, align 4, !tbaa !12
  %93 = icmp ne i32 %91, %92
  br i1 %93, label %94, label %244

94:                                               ; preds = %90
  call void @llvm.lifetime.start.p0(i64 4, ptr %20) #3
  %95 = load ptr, ptr %8, align 8, !tbaa !19
  %96 = load i32, ptr %16, align 4, !tbaa !12
  %97 = sext i32 %96 to i64
  %98 = getelementptr inbounds ptr, ptr %95, i64 %97
  %99 = load ptr, ptr %98, align 8, !tbaa !30
  %100 = getelementptr inbounds nuw %"class.cv::Point_.2", ptr %99, i32 0, i32 1
  %101 = load float, ptr %100, align 4, !tbaa !32
  store float %101, ptr %20, align 4, !tbaa !35
  call void @llvm.lifetime.start.p0(i64 4, ptr %21) #3
  %102 = load ptr, ptr %8, align 8, !tbaa !19
  %103 = load i32, ptr %17, align 4, !tbaa !12
  %104 = sext i32 %103 to i64
  %105 = getelementptr inbounds ptr, ptr %102, i64 %104
  %106 = load ptr, ptr %105, align 8, !tbaa !30
  %107 = getelementptr inbounds nuw %"class.cv::Point_.2", ptr %106, i32 0, i32 1
  %108 = load float, ptr %107, align 4, !tbaa !32
  store float %108, ptr %21, align 4, !tbaa !35
  call void @llvm.lifetime.start.p0(i64 4, ptr %22) #3
  %109 = load float, ptr %21, align 4, !tbaa !35
  %110 = load float, ptr %20, align 4, !tbaa !35
  %111 = fsub float %109, %110
  store float %111, ptr %22, align 4, !tbaa !35
  %112 = load float, ptr %22, align 4, !tbaa !35
  %113 = fcmp ogt float %112, 0.000000e+00
  %114 = zext i1 %113 to i32
  %115 = load float, ptr %22, align 4, !tbaa !35
  %116 = fcmp olt float %115, 0.000000e+00
  %117 = zext i1 %116 to i32
  %118 = sub nsw i32 %114, %117
  %119 = load i32, ptr %12, align 4, !tbaa !12
  %120 = icmp ne i32 %118, %119
  br i1 %120, label %121, label %233

121:                                              ; preds = %94
  call void @llvm.lifetime.start.p0(i64 4, ptr %23) #3
  %122 = load ptr, ptr %8, align 8, !tbaa !19
  %123 = load i32, ptr %16, align 4, !tbaa !12
  %124 = sext i32 %123 to i64
  %125 = getelementptr inbounds ptr, ptr %122, i64 %124
  %126 = load ptr, ptr %125, align 8, !tbaa !30
  %127 = getelementptr inbounds nuw %"class.cv::Point_.2", ptr %126, i32 0, i32 0
  %128 = load float, ptr %127, align 4, !tbaa !79
  %129 = load ptr, ptr %8, align 8, !tbaa !19
  %130 = load i32, ptr %15, align 4, !tbaa !12
  %131 = sext i32 %130 to i64
  %132 = getelementptr inbounds ptr, ptr %129, i64 %131
  %133 = load ptr, ptr %132, align 8, !tbaa !30
  %134 = getelementptr inbounds nuw %"class.cv::Point_.2", ptr %133, i32 0, i32 0
  %135 = load float, ptr %134, align 4, !tbaa !79
  %136 = fsub float %128, %135
  store float %136, ptr %23, align 4, !tbaa !35
  call void @llvm.lifetime.start.p0(i64 4, ptr %24) #3
  %137 = load ptr, ptr %8, align 8, !tbaa !19
  %138 = load i32, ptr %17, align 4, !tbaa !12
  %139 = sext i32 %138 to i64
  %140 = getelementptr inbounds ptr, ptr %137, i64 %139
  %141 = load ptr, ptr %140, align 8, !tbaa !30
  %142 = getelementptr inbounds nuw %"class.cv::Point_.2", ptr %141, i32 0, i32 0
  %143 = load float, ptr %142, align 4, !tbaa !79
  %144 = load ptr, ptr %8, align 8, !tbaa !19
  %145 = load i32, ptr %16, align 4, !tbaa !12
  %146 = sext i32 %145 to i64
  %147 = getelementptr inbounds ptr, ptr %144, i64 %146
  %148 = load ptr, ptr %147, align 8, !tbaa !30
  %149 = getelementptr inbounds nuw %"class.cv::Point_.2", ptr %148, i32 0, i32 0
  %150 = load float, ptr %149, align 4, !tbaa !79
  %151 = fsub float %143, %150
  store float %151, ptr %24, align 4, !tbaa !35
  call void @llvm.lifetime.start.p0(i64 4, ptr %25) #3
  %152 = load float, ptr %20, align 4, !tbaa !35
  %153 = load ptr, ptr %8, align 8, !tbaa !19
  %154 = load i32, ptr %15, align 4, !tbaa !12
  %155 = sext i32 %154 to i64
  %156 = getelementptr inbounds ptr, ptr %153, i64 %155
  %157 = load ptr, ptr %156, align 8, !tbaa !30
  %158 = getelementptr inbounds nuw %"class.cv::Point_.2", ptr %157, i32 0, i32 1
  %159 = load float, ptr %158, align 4, !tbaa !32
  %160 = fsub float %152, %159
  store float %160, ptr %25, align 4, !tbaa !35
  call void @llvm.lifetime.start.p0(i64 8, ptr %26) #3
  %161 = load float, ptr %25, align 4, !tbaa !35
  %162 = fpext float %161 to double
  %163 = load float, ptr %24, align 4, !tbaa !35
  %164 = fpext float %163 to double
  %165 = load float, ptr %23, align 4, !tbaa !35
  %166 = fpext float %165 to double
  %167 = load float, ptr %22, align 4, !tbaa !35
  %168 = fpext float %167 to double
  %169 = fmul double %166, %168
  %170 = fneg double %169
  %171 = call double @llvm.fmuladd.f64(double %162, double %164, double %170)
  store double %171, ptr %26, align 8, !tbaa !80
  %172 = load double, ptr %26, align 8, !tbaa !80
  %173 = fcmp ogt double %172, 0.000000e+00
  %174 = zext i1 %173 to i32
  %175 = load double, ptr %26, align 8, !tbaa !80
  %176 = fcmp olt double %175, 0.000000e+00
  %177 = zext i1 %176 to i32
  %178 = sub nsw i32 %174, %177
  %179 = load i32, ptr %13, align 4, !tbaa !12
  %180 = icmp eq i32 %178, %179
  br i1 %180, label %181, label %200

181:                                              ; preds = %121
  %182 = load float, ptr %23, align 4, !tbaa !35
  %183 = fcmp une float %182, 0.000000e+00
  br i1 %183, label %187, label %184

184:                                              ; preds = %181
  %185 = load float, ptr %25, align 4, !tbaa !35
  %186 = fcmp une float %185, 0.000000e+00
  br i1 %186, label %187, label %200

187:                                              ; preds = %184, %181
  %188 = load i32, ptr %16, align 4, !tbaa !12
  store i32 %188, ptr %15, align 4, !tbaa !12
  %189 = load i32, ptr %17, align 4, !tbaa !12
  store i32 %189, ptr %16, align 4, !tbaa !12
  %190 = load i32, ptr %14, align 4, !tbaa !12
  %191 = load i32, ptr %17, align 4, !tbaa !12
  %192 = add nsw i32 %191, %190
  store i32 %192, ptr %17, align 4, !tbaa !12
  %193 = load i32, ptr %17, align 4, !tbaa !12
  %194 = load ptr, ptr %11, align 8, !tbaa !23
  %195 = load i32, ptr %18, align 4, !tbaa !12
  %196 = sext i32 %195 to i64
  %197 = getelementptr inbounds i32, ptr %194, i64 %196
  store i32 %193, ptr %197, align 4, !tbaa !12
  %198 = load i32, ptr %18, align 4, !tbaa !12
  %199 = add nsw i32 %198, 1
  store i32 %199, ptr %18, align 4, !tbaa !12
  br label %232

200:                                              ; preds = %184, %121
  %201 = load i32, ptr %15, align 4, !tbaa !12
  %202 = load i32, ptr %9, align 4, !tbaa !12
  %203 = icmp eq i32 %201, %202
  br i1 %203, label %204, label %215

204:                                              ; preds = %200
  %205 = load i32, ptr %17, align 4, !tbaa !12
  store i32 %205, ptr %16, align 4, !tbaa !12
  %206 = load i32, ptr %16, align 4, !tbaa !12
  %207 = load ptr, ptr %11, align 8, !tbaa !23
  %208 = getelementptr inbounds i32, ptr %207, i64 1
  store i32 %206, ptr %208, align 4, !tbaa !12
  %209 = load i32, ptr %14, align 4, !tbaa !12
  %210 = load i32, ptr %17, align 4, !tbaa !12
  %211 = add nsw i32 %210, %209
  store i32 %211, ptr %17, align 4, !tbaa !12
  %212 = load i32, ptr %17, align 4, !tbaa !12
  %213 = load ptr, ptr %11, align 8, !tbaa !23
  %214 = getelementptr inbounds i32, ptr %213, i64 2
  store i32 %212, ptr %214, align 4, !tbaa !12
  br label %231

215:                                              ; preds = %200
  %216 = load i32, ptr %17, align 4, !tbaa !12
  %217 = load ptr, ptr %11, align 8, !tbaa !23
  %218 = load i32, ptr %18, align 4, !tbaa !12
  %219 = sub nsw i32 %218, 2
  %220 = sext i32 %219 to i64
  %221 = getelementptr inbounds i32, ptr %217, i64 %220
  store i32 %216, ptr %221, align 4, !tbaa !12
  %222 = load i32, ptr %15, align 4, !tbaa !12
  store i32 %222, ptr %16, align 4, !tbaa !12
  %223 = load ptr, ptr %11, align 8, !tbaa !23
  %224 = load i32, ptr %18, align 4, !tbaa !12
  %225 = sub nsw i32 %224, 4
  %226 = sext i32 %225 to i64
  %227 = getelementptr inbounds i32, ptr %223, i64 %226
  %228 = load i32, ptr %227, align 4, !tbaa !12
  store i32 %228, ptr %15, align 4, !tbaa !12
  %229 = load i32, ptr %18, align 4, !tbaa !12
  %230 = add nsw i32 %229, -1
  store i32 %230, ptr %18, align 4, !tbaa !12
  br label %231

231:                                              ; preds = %215, %204
  br label %232

232:                                              ; preds = %231, %187
  call void @llvm.lifetime.end.p0(i64 8, ptr %26) #3
  call void @llvm.lifetime.end.p0(i64 4, ptr %25) #3
  call void @llvm.lifetime.end.p0(i64 4, ptr %24) #3
  call void @llvm.lifetime.end.p0(i64 4, ptr %23) #3
  br label %243

233:                                              ; preds = %94
  %234 = load i32, ptr %14, align 4, !tbaa !12
  %235 = load i32, ptr %17, align 4, !tbaa !12
  %236 = add nsw i32 %235, %234
  store i32 %236, ptr %17, align 4, !tbaa !12
  %237 = load i32, ptr %17, align 4, !tbaa !12
  %238 = load ptr, ptr %11, align 8, !tbaa !23
  %239 = load i32, ptr %18, align 4, !tbaa !12
  %240 = sub nsw i32 %239, 1
  %241 = sext i32 %240 to i64
  %242 = getelementptr inbounds i32, ptr %238, i64 %241
  store i32 %237, ptr %242, align 4, !tbaa !12
  br label %243

243:                                              ; preds = %233, %232
  call void @llvm.lifetime.end.p0(i64 4, ptr %22) #3
  call void @llvm.lifetime.end.p0(i64 4, ptr %21) #3
  call void @llvm.lifetime.end.p0(i64 4, ptr %20) #3
  br label %90, !llvm.loop !82

244:                                              ; preds = %90
  %245 = load i32, ptr %18, align 4, !tbaa !12
  %246 = add nsw i32 %245, -1
  store i32 %246, ptr %18, align 4, !tbaa !12
  store i32 %246, ptr %7, align 4
  store i32 1, ptr %19, align 4
  br label %247

247:                                              ; preds = %244, %73
  call void @llvm.lifetime.end.p0(i64 4, ptr %18) #3
  call void @llvm.lifetime.end.p0(i64 4, ptr %17) #3
  call void @llvm.lifetime.end.p0(i64 4, ptr %16) #3
  call void @llvm.lifetime.end.p0(i64 4, ptr %15) #3
  call void @llvm.lifetime.end.p0(i64 4, ptr %14) #3
  %248 = load i32, ptr %7, align 4
  ret i32 %248
}