; Function Attrs: mustprogress nofree norecurse nosync nounwind memory(read, argmem: readwrite, inaccessiblemem: none) uwtable
define internal fastcc noundef range(i32 -2147483648, 2147483647) i32 @_ZN2cvL9Sklansky_IfdEEiPPNS_6Point_IT_EEiiPiii(ptr noundef readonly captures(none) %0, i32 noundef range(i32 0, 2147483647) %1, i32 noundef %2, ptr noundef captures(none) initializes((0, 4)) %3, i32 noundef range(i32 -1, 2) %4, i32 noundef range(i32 -1, 2) %5) unnamed_addr #6 {
  %7 = icmp sgt i32 %2, %1
  %8 = select i1 %7, i32 1, i32 -1
  %9 = add nsw i32 %8, %1
  %10 = add nsw i32 %9, %8
  %11 = icmp eq i32 %1, %2
  br i1 %11, label %28, label %12

12:                                               ; preds = %6
  %13 = zext nneg i32 %1 to i64
  %14 = getelementptr inbounds nuw ptr, ptr %0, i64 %13
  %15 = load ptr, ptr %14, align 8, !tbaa !43
  %16 = load float, ptr %15, align 4, !tbaa !67
  %17 = sext i32 %2 to i64
  %18 = getelementptr inbounds ptr, ptr %0, i64 %17
  %19 = load ptr, ptr %18, align 8, !tbaa !43
  %20 = load float, ptr %19, align 4, !tbaa !67
  %21 = fcmp oeq float %16, %20
  br i1 %21, label %22, label %29

22:                                               ; preds = %12
  %23 = getelementptr inbounds nuw i8, ptr %15, i64 4
  %24 = load float, ptr %23, align 4, !tbaa !45
  %25 = getelementptr inbounds nuw i8, ptr %19, i64 4
  %26 = load float, ptr %25, align 4, !tbaa !45
  %27 = fcmp oeq float %24, %26
  br i1 %27, label %28, label %29

28:                                               ; preds = %22, %6
  store i32 %1, ptr %3, align 4, !tbaa !50
  br label %._crit_edge

29:                                               ; preds = %22, %12
  store i32 %1, ptr %3, align 4, !tbaa !50
  %30 = getelementptr inbounds nuw i8, ptr %3, i64 4
  store i32 %9, ptr %30, align 4, !tbaa !50
  %31 = getelementptr inbounds nuw i8, ptr %3, i64 8
  store i32 %10, ptr %31, align 4, !tbaa !50
  %32 = add nsw i32 %8, %2
  %invariant.gep = getelementptr i8, ptr %3, i64 -4
  %.not103 = icmp eq i32 %9, %2
  br i1 %.not103, label %._crit_edge, label %.lr.ph

.lr.ph:                                           ; preds = %29, %94
  %.089107 = phi i32 [ %.2, %94 ], [ %1, %29 ]
  %.090106 = phi i32 [ %.292, %94 ], [ %9, %29 ]
  %.093105 = phi i32 [ %.295, %94 ], [ %10, %29 ]
  %.096104 = phi i32 [ %.298, %94 ], [ 3, %29 ]
  %33 = sext i32 %.090106 to i64
  %34 = getelementptr inbounds ptr, ptr %0, i64 %33
  %35 = load ptr, ptr %34, align 8, !tbaa !43
  %36 = getelementptr inbounds nuw i8, ptr %35, i64 4
  %37 = load float, ptr %36, align 4, !tbaa !45
  %38 = sext i32 %.093105 to i64
  %39 = getelementptr inbounds ptr, ptr %0, i64 %38
  %40 = load ptr, ptr %39, align 8, !tbaa !43
  %41 = getelementptr inbounds nuw i8, ptr %40, i64 4
  %42 = load float, ptr %41, align 4, !tbaa !45
  %43 = fsub float %42, %37
  %44 = fcmp ogt float %43, 0.000000e+00
  %45 = zext i1 %44 to i32
  %46 = fcmp olt float %43, 0.000000e+00
  %.neg = sext i1 %46 to i32
  %47 = add nsw i32 %.neg, %45
  %.not101 = icmp eq i32 %47, %4
  br i1 %.not101, label %91, label %48

48:                                               ; preds = %.lr.ph
  %49 = load float, ptr %35, align 4, !tbaa !67
  %50 = sext i32 %.089107 to i64
  %51 = getelementptr inbounds ptr, ptr %0, i64 %50
  %52 = load ptr, ptr %51, align 8, !tbaa !43
  %53 = load float, ptr %52, align 4, !tbaa !67
  %54 = fsub float %49, %53
  %55 = load float, ptr %40, align 4, !tbaa !67
  %56 = fsub float %55, %49
  %57 = getelementptr inbounds nuw i8, ptr %52, i64 4
  %58 = load float, ptr %57, align 4, !tbaa !45
  %59 = fsub float %37, %58
  %60 = fpext float %59 to double
  %61 = fpext float %56 to double
  %62 = fpext float %54 to double
  %63 = fpext float %43 to double
  %64 = fneg double %63
  %65 = fmul double %64, %62
  %66 = tail call double @llvm.fmuladd.f64(double %60, double %61, double %65)
  %67 = fcmp ogt double %66, 0.000000e+00
  %68 = zext i1 %67 to i32
  %69 = fcmp olt double %66, 0.000000e+00
  %.neg102 = sext i1 %69 to i32
  %70 = add nsw i32 %.neg102, %68
  %71 = icmp eq i32 %70, %5
  br i1 %71, label %72, label %80

72:                                               ; preds = %48
  %73 = fcmp une float %54, 0.000000e+00
  %74 = fcmp une float %59, 0.000000e+00
  %or.cond = select i1 %73, i1 true, i1 %74
  br i1 %or.cond, label %75, label %80

75:                                               ; preds = %72
  %76 = add nsw i32 %.093105, %8
  %77 = sext i32 %.096104 to i64
  %78 = getelementptr inbounds i32, ptr %3, i64 %77
  store i32 %76, ptr %78, align 4, !tbaa !50
  %79 = add nsw i32 %.096104, 1
  br label %94

80:                                               ; preds = %72, %48
  %81 = icmp eq i32 %.089107, %1
  br i1 %81, label %82, label %84

82:                                               ; preds = %80
  store i32 %.093105, ptr %30, align 4, !tbaa !50
  %83 = add nsw i32 %.093105, %8
  store i32 %83, ptr %31, align 4, !tbaa !50
  br label %94

84:                                               ; preds = %80
  %85 = sext i32 %.096104 to i64
  %86 = getelementptr i32, ptr %3, i64 %85
  %87 = getelementptr i8, ptr %86, i64 -8
  store i32 %.093105, ptr %87, align 4, !tbaa !50
  %88 = getelementptr i8, ptr %86, i64 -16
  %89 = load i32, ptr %88, align 4, !tbaa !50
  %90 = add nsw i32 %.096104, -1
  br label %94

91:                                               ; preds = %.lr.ph
  %92 = add nsw i32 %.093105, %8
  %93 = sext i32 %.096104 to i64
  %gep = getelementptr i32, ptr %invariant.gep, i64 %93
  store i32 %92, ptr %gep, align 4, !tbaa !50
  br label %94

94:                                               ; preds = %75, %84, %82, %91
  %.298 = phi i32 [ %.096104, %91 ], [ %79, %75 ], [ %.096104, %82 ], [ %90, %84 ]
  %.295 = phi i32 [ %92, %91 ], [ %76, %75 ], [ %83, %82 ], [ %.093105, %84 ]
  %.292 = phi i32 [ %.090106, %91 ], [ %.093105, %75 ], [ %.093105, %82 ], [ %.089107, %84 ]
  %.2 = phi i32 [ %.089107, %91 ], [ %.090106, %75 ], [ %1, %82 ], [ %89, %84 ]
  %.not = icmp eq i32 %.295, %32
  br i1 %.not, label %._crit_edge.loopexit, label %.lr.ph, !llvm.loop !68

._crit_edge.loopexit:                             ; preds = %94
  %95 = add nsw i32 %.298, -1
  br label %._crit_edge

._crit_edge:                                      ; preds = %29, %._crit_edge.loopexit, %28
  %.0 = phi i32 [ 1, %28 ], [ 2, %29 ], [ %95, %._crit_edge.loopexit ]
  ret i32 %.0
}